target datalayout = "e-m:e-p270:32:32-p271:32:32-p272:64:64-i64:64-i128:128-f80:128-n8:16:32:64-S128"
target triple = "x86_64-pc-linux-gnu"

%class.Register = type { i32 }
%class.XMMRegister = type { i32 }
%class.RelocationHolder = type { [40 x i8] }
%class.Label = type <{ i32, [4 x i32], i32, ptr, i8, [7 x i8] }>
%class.Address = type { %class.Register, %class.Register, %class.XMMRegister, i32, i32, i8, [3 x i8], %class.RelocationHolder }
%class.anon = type { i8 }
%class.DataLayout = type { %union.anon, [1 x i64] }
%union.anon = type { i64 }
%class.Relocation = type <{ ptr, ptr, i32, [4 x i8] }>

@_ZL5noreg = internal constant %class.Register { i32 -1 }, align 4
@ProfileInterpreter = external global i8, align 1
@_ZL3rbp = internal constant %class.Register { i32 5 }, align 4
@TypeProfileWidth = external global i64, align 8
@_ZL6xnoreg = internal constant %class.XMMRegister { i32 -1 }, align 4
@_ZTV10Relocation = external unnamed_addr constant { [11 x ptr] }, align 8

; Function Attrs: mustprogress nounwind uwtable
define linkonce_odr hidden void @_ZN10RelocationC2EN9relocInfo9relocTypeE(ptr noundef nonnull align 8 dereferenceable(20) %0, i32 noundef %1) unnamed_addr #1 comdat align 2 {
  %3 = alloca ptr, align 8
  %4 = alloca i32, align 4
  store ptr %0, ptr %3, align 8
  store i32 %1, ptr %4, align 4
  %5 = load ptr, ptr %3, align 8
  store ptr getelementptr inbounds inrange(-16, 72) ({ [11 x ptr] }, ptr @_ZTV10Relocation, i32 0, i32 0, i32 2), ptr %5, align 8
  %6 = getelementptr inbounds %class.Relocation, ptr %5, i32 0, i32 1
  store ptr null, ptr %6, align 8
  %7 = getelementptr inbounds %class.Relocation, ptr %5, i32 0, i32 2
  %8 = load i32, ptr %4, align 4
  store i32 %8, ptr %7, align 8
  ret void
}

; Function Attrs: mustprogress nounwind uwtable
define linkonce_odr hidden void @_ZN10RelocationC2Ev(ptr noundef nonnull align 8 dereferenceable(20) %0) unnamed_addr #1 comdat align 2 {
  %2 = alloca ptr, align 8
  store ptr %0, ptr %2, align 8
  %3 = load ptr, ptr %2, align 8
  call void @_ZN10RelocationC2EN9relocInfo9relocTypeE(ptr noundef nonnull align 8 dereferenceable(20) %3, i32 noundef 0)
  ret void
}

; Function Attrs: mustprogress nounwind uwtable
define linkonce_odr hidden void @_ZN16RelocationHolder18emplace_relocationI10RelocationJEEEvDpRKT0_(ptr noundef nonnull align 8 dereferenceable(40) %0) #1 comdat align 2 {
  %2 = alloca ptr, align 8
  %3 = alloca ptr, align 8
  store ptr %0, ptr %2, align 8
  %4 = load ptr, ptr %2, align 8
  %5 = getelementptr inbounds %class.RelocationHolder, ptr %4, i32 0, i32 0
  %6 = getelementptr inbounds [40 x i8], ptr %5, i64 0, i64 0
  call void @_ZN10RelocationC2Ev(ptr noundef nonnull align 8 dereferenceable(20) %6)
  store ptr %6, ptr %3, align 8
  ret void
}

; Function Attrs: mustprogress nounwind uwtable
define linkonce_odr hidden noundef i32 @_Zpl8ByteSizeS_(i32 noundef %0, i32 noundef %1) #1 comdat {
  %3 = alloca i32, align 4
  %4 = alloca i32, align 4
  store i32 %0, ptr %3, align 4
  store i32 %1, ptr %4, align 4
  %5 = load i32, ptr %3, align 4
  %6 = call noundef i32 @_Z8in_bytes8ByteSize(i32 noundef %5)
  %7 = load i32, ptr %4, align 4
  %8 = call noundef i32 @_Z8in_bytes8ByteSize(i32 noundef %7)
  %9 = add nsw i32 %6, %8
  %10 = call noundef i32 @_Z11in_ByteSizei(i32 noundef %9)
  ret i32 %10
}

; Function Attrs: mustprogress nounwind uwtable
define linkonce_odr hidden noundef i32 @_Z11in_ByteSizei(i32 noundef %0) #1 comdat {
  %2 = alloca i32, align 4
  store i32 %0, ptr %2, align 4
  %3 = load i32, ptr %2, align 4
  ret i32 %3
}

; Function Attrs: mustprogress nounwind uwtable
define linkonce_odr hidden noundef i64 @_ZZN10DataLayout11cell_offsetEiENKUlvE_clEv(ptr noundef nonnull align 1 dereferenceable(1) %0) #1 comdat align 2 {
  %2 = alloca ptr, align 8
  %3 = alloca [16 x i8], align 16
  %4 = alloca ptr, align 8
  %5 = alloca ptr, align 8
  store ptr %0, ptr %2, align 8
  %6 = getelementptr inbounds [16 x i8], ptr %3, i64 0, i64 0
  store ptr %6, ptr %4, align 8
  %7 = load ptr, ptr %4, align 8
  %8 = getelementptr inbounds %class.DataLayout, ptr %7, i32 0, i32 1
  store ptr %8, ptr %5, align 8
  %9 = load ptr, ptr %5, align 8
  %10 = getelementptr inbounds [16 x i8], ptr %3, i64 0, i64 0
  %11 = ptrtoint ptr %9 to i64
  %12 = ptrtoint ptr %10 to i64
  %13 = sub i64 %11, %12
  ret i64 %13
}

; Function Attrs: mustprogress nounwind uwtable
define linkonce_odr hidden void @_ZN16RelocationHolderC2I10RelocationJEEENS_9ConstructIT_EEDpRKT0_(ptr noundef nonnull align 8 dereferenceable(40) %0) unnamed_addr #1 comdat align 2 {
  %2 = alloca ptr, align 8
  store ptr %0, ptr %2, align 8
  %3 = load ptr, ptr %2, align 8
  call void @_ZN16RelocationHolder18emplace_relocationI10RelocationJEEEvDpRKT0_(ptr noundef nonnull align 8 dereferenceable(40) %3)
  ret void
}

; Function Attrs: mustprogress nounwind uwtable
define linkonce_odr hidden noundef i32 @_ZN16ReceiverTypeData17static_cell_countEv() #1 comdat align 2 {
  %1 = load i64, ptr @TypeProfileWidth, align 8
  %2 = trunc i64 %1 to i32
  %3 = mul i32 %2, 2
  %4 = add i32 1, %3
  ret i32 %4
}

; Function Attrs: mustprogress nounwind uwtable
define linkonce_odr hidden noundef i32 @_ZN10DataLayout11cell_offsetEi(i32 noundef %0) #1 comdat align 2 {
  %2 = alloca i32, align 4
  %3 = alloca %class.anon, align 1
  store i32 %0, ptr %2, align 4
  %4 = call noundef i64 @_ZZN10DataLayout11cell_offsetEiENKUlvE_clEv(ptr noundef nonnull align 1 dereferenceable(1) %3)
  %5 = trunc i64 %4 to i32
  %6 = call noundef i32 @_Z11in_ByteSizei(i32 noundef %5)
  %7 = load i32, ptr %2, align 4
  %8 = mul nsw i32 %7, 8
  %9 = call noundef i32 @_Z11in_ByteSizei(i32 noundef %8)
  %10 = call noundef i32 @_Zpl8ByteSizeS_(i32 noundef %6, i32 noundef %9)
  ret i32 %10
}

; Function Attrs: mustprogress nounwind uwtable
define linkonce_odr hidden void @_ZN16RelocationHolderC2Ev(ptr noundef nonnull align 8 dereferenceable(40) %0) unnamed_addr #1 comdat align 2 {
  %2 = alloca ptr, align 8
  store ptr %0, ptr %2, align 8
  %3 = load ptr, ptr %2, align 8
  call void @_ZN16RelocationHolderC2I10RelocationJEEENS_9ConstructIT_EEDpRKT0_(ptr noundef nonnull align 8 dereferenceable(40) %3)
  ret void
}

; Function Attrs: mustprogress nounwind uwtable
define linkonce_odr hidden noundef i32 @_ZN15VirtualCallData17static_cell_countEv() #1 comdat align 2 {
  %1 = call noundef i32 @_ZN16ReceiverTypeData17static_cell_countEv()
  ret i32 %1
}

; Function Attrs: mustprogress nounwind uwtable
define linkonce_odr hidden noundef i32 @_ZN11ProfileData11cell_offsetEi(i32 noundef %0) #1 comdat align 2 {
  %2 = alloca i32, align 4
  store i32 %0, ptr %2, align 4
  %3 = load i32, ptr %2, align 4
  %4 = call noundef i32 @_ZN10DataLayout11cell_offsetEi(i32 noundef %3)
  ret i32 %4
}

; Function Attrs: mustprogress nounwind uwtable
define linkonce_odr hidden void @_ZN7AddressC2E8Registeri(ptr noundef nonnull align 8 dereferenceable(64) %0, i32 %1, i32 noundef %2) unnamed_addr #1 comdat align 2 {
  %4 = alloca %class.Register, align 4
  %5 = alloca ptr, align 8
  %6 = alloca i32, align 4
  %7 = getelementptr inbounds %class.Register, ptr %4, i32 0, i32 0
  store i32 %1, ptr %7, align 4
  store ptr %0, ptr %5, align 8
  store i32 %2, ptr %6, align 4
  %8 = load ptr, ptr %5, align 8
  %9 = getelementptr inbounds %class.Address, ptr %8, i32 0, i32 0
  call void @llvm.memcpy.p0.p0.i64(ptr align 8 %9, ptr align 4 %4, i64 4, i1 false)
  %10 = getelementptr inbounds %class.Address, ptr %8, i32 0, i32 1
  call void @llvm.memcpy.p0.p0.i64(ptr align 4 %10, ptr align 4 @_ZL5noreg, i64 4, i1 false)
  %11 = getelementptr inbounds %class.Address, ptr %8, i32 0, i32 2
  call void @llvm.memcpy.p0.p0.i64(ptr align 8 %11, ptr align 4 @_ZL6xnoreg, i64 4, i1 false)
  %12 = getelementptr inbounds %class.Address, ptr %8, i32 0, i32 3
  store i32 -1, ptr %12, align 4
  %13 = getelementptr inbounds %class.Address, ptr %8, i32 0, i32 4
  %14 = load i32, ptr %6, align 4
  store i32 %14, ptr %13, align 8
  %15 = getelementptr inbounds %class.Address, ptr %8, i32 0, i32 5
  store i8 0, ptr %15, align 4
  %16 = getelementptr inbounds %class.Address, ptr %8, i32 0, i32 7
  call void @_ZN16RelocationHolderC2Ev(ptr noundef nonnull align 8 dereferenceable(40) %16)
  ret void
}

; Function Attrs: mustprogress nounwind uwtable
define linkonce_odr hidden void @_ZN5Label4initEv(ptr noundef nonnull align 8 dereferenceable(33) %0) #1 comdat align 2 {
  %2 = alloca ptr, align 8
  store ptr %0, ptr %2, align 8
  %3 = load ptr, ptr %2, align 8
  %4 = getelementptr inbounds %class.Label, ptr %3, i32 0, i32 0
  store i32 -1, ptr %4, align 8
  %5 = getelementptr inbounds %class.Label, ptr %3, i32 0, i32 2
  store i32 0, ptr %5, align 4
  %6 = getelementptr inbounds %class.Label, ptr %3, i32 0, i32 3
  store ptr null, ptr %6, align 8
  %7 = getelementptr inbounds %class.Label, ptr %3, i32 0, i32 4
  store i8 0, ptr %7, align 8
  ret void
}

; Function Attrs: mustprogress nounwind uwtable
define linkonce_odr hidden void @_ZN5LabelD2Ev(ptr noundef nonnull align 8 dereferenceable(33) %0) unnamed_addr #1 comdat align 2 {
  %2 = alloca ptr, align 8
  store ptr %0, ptr %2, align 8
  ret void
}

; Function Attrs: mustprogress nounwind uwtable
define hidden void @_ZN25InterpreterMacroAssembler22update_mdp_by_constantE8Registeri(ptr noundef nonnull align 8 dereferenceable(48) %0, i32 %1, i32 noundef %2) #1 align 2 {
  %4 = alloca %class.Register, align 4
  %5 = alloca ptr, align 8
  %6 = alloca i32, align 4
  %7 = alloca %class.Register, align 4
  %8 = alloca %class.Address, align 8
  %9 = alloca %class.Register, align 4
  %10 = alloca %class.Register, align 4
  %11 = getelementptr inbounds %class.Register, ptr %4, i32 0, i32 0
  store i32 %1, ptr %11, align 4
  store ptr %0, ptr %5, align 8
  store i32 %2, ptr %6, align 4
  %12 = load ptr, ptr %5, align 8
  call void @llvm.memcpy.p0.p0.i64(ptr align 4 %7, ptr align 4 %4, i64 4, i1 false)
  %13 = load i32, ptr %6, align 4
  %14 = getelementptr inbounds %class.Register, ptr %7, i32 0, i32 0
  %15 = load i32, ptr %14, align 4
  call void @_ZN14MacroAssembler6addptrE8Registeri(ptr noundef nonnull align 8 dereferenceable(40) %12, i32 %15, i32 noundef %13)
  call void @llvm.memcpy.p0.p0.i64(ptr align 4 %9, ptr align 4 @_ZL3rbp, i64 4, i1 false)
  %16 = getelementptr inbounds %class.Register, ptr %9, i32 0, i32 0
  %17 = load i32, ptr %16, align 4
  call void @_ZN7AddressC2E8Registeri(ptr noundef nonnull align 8 dereferenceable(64) %8, i32 %17, i32 noundef -40)
  call void @llvm.memcpy.p0.p0.i64(ptr align 4 %10, ptr align 4 %4, i64 4, i1 false)
  %18 = getelementptr inbounds %class.Register, ptr %10, i32 0, i32 0
  %19 = load i32, ptr %18, align 4
  call void @_ZN14MacroAssembler6movptrE7Address8Register(ptr noundef nonnull align 8 dereferenceable(40) %12, ptr noundef %8, i32 %19)
  ret void
}

; Function Attrs: mustprogress nounwind uwtable
define hidden void @_ZN25InterpreterMacroAssembler23record_klass_in_profileE8RegisterS0_S0_b(ptr noundef nonnull align 8 dereferenceable(48) %0, i32 %1, i32 %2, i32 %3, i1 noundef zeroext %4) #1 align 2 {
  %6 = alloca %class.Register, align 4
  %7 = alloca %class.Register, align 4
  %8 = alloca %class.Register, align 4
  %9 = alloca ptr, align 8
  %10 = alloca i8, align 1
  %11 = alloca %class.Label, align 8
  %12 = alloca %class.Register, align 4
  %13 = alloca %class.Register, align 4
  %14 = alloca %class.Register, align 4
  %15 = getelementptr inbounds %class.Register, ptr %6, i32 0, i32 0
  store i32 %1, ptr %15, align 4
  %16 = getelementptr inbounds %class.Register, ptr %7, i32 0, i32 0
  store i32 %2, ptr %16, align 4
  %17 = getelementptr inbounds %class.Register, ptr %8, i32 0, i32 0
  store i32 %3, ptr %17, align 4
  store ptr %0, ptr %9, align 8
  %18 = zext i1 %4 to i8
  store i8 %18, ptr %10, align 1
  %19 = load ptr, ptr %9, align 8
  call void @_ZN5LabelC2Ev(ptr noundef nonnull align 8 dereferenceable(33) %11)
  call void @llvm.memcpy.p0.p0.i64(ptr align 4 %12, ptr align 4 %6, i64 4, i1 false)
  call void @llvm.memcpy.p0.p0.i64(ptr align 4 %13, ptr align 4 %7, i64 4, i1 false)
  call void @llvm.memcpy.p0.p0.i64(ptr align 4 %14, ptr align 4 %8, i64 4, i1 false)
  %20 = load i8, ptr %10, align 1
  %21 = trunc i8 %20 to i1
  %22 = getelementptr inbounds %class.Register, ptr %12, i32 0, i32 0
  %23 = load i32, ptr %22, align 4
  %24 = getelementptr inbounds %class.Register, ptr %13, i32 0, i32 0
  %25 = load i32, ptr %24, align 4
  %26 = getelementptr inbounds %class.Register, ptr %14, i32 0, i32 0
  %27 = load i32, ptr %26, align 4
  call void @_ZN25InterpreterMacroAssembler30record_klass_in_profile_helperE8RegisterS0_S0_iR5Labelb(ptr noundef nonnull align 8 dereferenceable(48) %19, i32 %23, i32 %25, i32 %27, i32 noundef 0, ptr noundef nonnull align 8 dereferenceable(33) %11, i1 noundef zeroext %21)
  call void @_ZN17AbstractAssembler4bindER5Label(ptr noundef nonnull align 8 dereferenceable(24) %19, ptr noundef nonnull align 8 dereferenceable(33) %11)
  call void @_ZN5LabelD2Ev(ptr noundef nonnull align 8 dereferenceable(33) %11) #6
  ret void
}

; Function Attrs: mustprogress nounwind uwtable
define linkonce_odr hidden noundef i32 @_ZN15VirtualCallData22virtual_call_data_sizeEv() #1 comdat align 2 {
  %1 = call noundef i32 @_ZN15VirtualCallData17static_cell_countEv()
  %2 = call noundef i32 @_ZN11ProfileData11cell_offsetEi(i32 noundef %1)
  ret i32 %2
}

; Function Attrs: mustprogress nounwind uwtable
define linkonce_odr hidden noundef i32 @_Z8in_bytes8ByteSize(i32 noundef %0) #1 comdat {
  %2 = alloca i32, align 4
  store i32 %0, ptr %2, align 4
  %3 = load i32, ptr %2, align 4
  ret i32 %3
}

; Function Attrs: mustprogress nounwind uwtable
define linkonce_odr hidden noundef i32 @_ZN7BitData13bit_data_sizeEv() #1 comdat align 2 {
  %1 = call noundef i32 @_ZN11ProfileData11cell_offsetEi(i32 noundef 0)
  ret i32 %1
}

; Function Attrs: mustprogress nounwind uwtable
define hidden void @_ZN25InterpreterMacroAssembler24test_method_data_pointerE8RegisterR5Label(ptr noundef nonnull align 8 dereferenceable(48) %0, i32 %1, ptr noundef nonnull align 8 dereferenceable(33) %2) #1 align 2 {
  %4 = alloca %class.Register, align 4
  %5 = alloca ptr, align 8
  %6 = alloca ptr, align 8
  %7 = alloca %class.Register, align 4
  %8 = alloca %class.Address, align 8
  %9 = alloca %class.Register, align 4
  %10 = alloca %class.Register, align 4
  %11 = alloca %class.Register, align 4
  %12 = getelementptr inbounds %class.Register, ptr %4, i32 0, i32 0
  store i32 %1, ptr %12, align 4
  store ptr %0, ptr %5, align 8
  store ptr %2, ptr %6, align 8
  %13 = load ptr, ptr %5, align 8
  call void @llvm.memcpy.p0.p0.i64(ptr align 4 %7, ptr align 4 %4, i64 4, i1 false)
  call void @llvm.memcpy.p0.p0.i64(ptr align 4 %9, ptr align 4 @_ZL3rbp, i64 4, i1 false)
  %14 = getelementptr inbounds %class.Register, ptr %9, i32 0, i32 0
  %15 = load i32, ptr %14, align 4
  call void @_ZN7AddressC2E8Registeri(ptr noundef nonnull align 8 dereferenceable(64) %8, i32 %15, i32 noundef -40)
  %16 = getelementptr inbounds %class.Register, ptr %7, i32 0, i32 0
  %17 = load i32, ptr %16, align 4
  call void @_ZN14MacroAssembler6movptrE8Register7Address(ptr noundef nonnull align 8 dereferenceable(40) %13, i32 %17, ptr noundef %8)
  call void @llvm.memcpy.p0.p0.i64(ptr align 4 %10, ptr align 4 %4, i64 4, i1 false)
  call void @llvm.memcpy.p0.p0.i64(ptr align 4 %11, ptr align 4 %4, i64 4, i1 false)
  %18 = getelementptr inbounds %class.Register, ptr %10, i32 0, i32 0
  %19 = load i32, ptr %18, align 4
  %20 = getelementptr inbounds %class.Register, ptr %11, i32 0, i32 0
  %21 = load i32, ptr %20, align 4
  call void @_ZN14MacroAssembler7testptrE8RegisterS0_(ptr noundef nonnull align 8 dereferenceable(40) %13, i32 %19, i32 %21)
  %22 = load ptr, ptr %6, align 8
  call void @_ZN9Assembler3jccENS_9ConditionER5Labelb(ptr noundef nonnull align 8 dereferenceable(40) %13, i32 noundef 4, ptr noundef nonnull align 8 dereferenceable(33) %22, i1 noundef zeroext true)
  ret void
}

; Function Attrs: mustprogress nounwind uwtable
define linkonce_odr hidden void @_ZN5LabelC2Ev(ptr noundef nonnull align 8 dereferenceable(33) %0) unnamed_addr #1 comdat align 2 {
  %2 = alloca ptr, align 8
  store ptr %0, ptr %2, align 8
  %3 = load ptr, ptr %2, align 8
  call void @_ZN5Label4initEv(ptr noundef nonnull align 8 dereferenceable(33) %3)
  ret void
}

; Function Attrs: mustprogress nounwind uwtable
define hidden void @_ZN25InterpreterMacroAssembler17profile_typecheckE8RegisterS0_S0_(ptr noundef nonnull align 8 dereferenceable(48) %0, i32 %1, i32 %2, i32 %3) #1 align 2 {
  %5 = alloca %class.Register, align 4
  %6 = alloca %class.Register, align 4
  %7 = alloca %class.Register, align 4
  %8 = alloca ptr, align 8
  %9 = alloca %class.Label, align 8
  %10 = alloca %class.Register, align 4
  %11 = alloca i32, align 4
  %12 = alloca %class.Register, align 4
  %13 = alloca %class.Register, align 4
  %14 = alloca %class.Register, align 4
  %15 = alloca %class.Register, align 4
  %16 = getelementptr inbounds %class.Register, ptr %5, i32 0, i32 0
  store i32 %1, ptr %16, align 4
  %17 = getelementptr inbounds %class.Register, ptr %6, i32 0, i32 0
  store i32 %2, ptr %17, align 4
  %18 = getelementptr inbounds %class.Register, ptr %7, i32 0, i32 0
  store i32 %3, ptr %18, align 4
  store ptr %0, ptr %8, align 8
  %19 = load ptr, ptr %8, align 8
  %20 = load i8, ptr @ProfileInterpreter, align 1
  %21 = trunc i8 %20 to i1
  br i1 %21, label %22, label %38

22:                                               ; preds = %4
  call void @_ZN5LabelC2Ev(ptr noundef nonnull align 8 dereferenceable(33) %9)
  call void @llvm.memcpy.p0.p0.i64(ptr align 4 %10, ptr align 4 %5, i64 4, i1 false)
  %23 = getelementptr inbounds %class.Register, ptr %10, i32 0, i32 0
  %24 = load i32, ptr %23, align 4
  call void @_ZN25InterpreterMacroAssembler24test_method_data_pointerE8RegisterR5Label(ptr noundef nonnull align 8 dereferenceable(48) %19, i32 %24, ptr noundef nonnull align 8 dereferenceable(33) %9)
  %25 = call noundef i32 @_ZN7BitData13bit_data_sizeEv()
  %26 = call noundef i32 @_Z8in_bytes8ByteSize(i32 noundef %25)
  store i32 %26, ptr %11, align 4
  %27 = call noundef i32 @_ZN15VirtualCallData22virtual_call_data_sizeEv()
  %28 = call noundef i32 @_Z8in_bytes8ByteSize(i32 noundef %27)
  store i32 %28, ptr %11, align 4
  call void @llvm.memcpy.p0.p0.i64(ptr align 4 %12, ptr align 4 %6, i64 4, i1 false)
  call void @llvm.memcpy.p0.p0.i64(ptr align 4 %13, ptr align 4 %5, i64 4, i1 false)
  call void @llvm.memcpy.p0.p0.i64(ptr align 4 %14, ptr align 4 %7, i64 4, i1 false)
  %29 = getelementptr inbounds %class.Register, ptr %12, i32 0, i32 0
  %30 = load i32, ptr %29, align 4
  %31 = getelementptr inbounds %class.Register, ptr %13, i32 0, i32 0
  %32 = load i32, ptr %31, align 4
  %33 = getelementptr inbounds %class.Register, ptr %14, i32 0, i32 0
  %34 = load i32, ptr %33, align 4
  call void @_ZN25InterpreterMacroAssembler23record_klass_in_profileE8RegisterS0_S0_b(ptr noundef nonnull align 8 dereferenceable(48) %19, i32 %30, i32 %32, i32 %34, i1 noundef zeroext false)
  call void @llvm.memcpy.p0.p0.i64(ptr align 4 %15, ptr align 4 %5, i64 4, i1 false)
  %35 = load i32, ptr %11, align 4
  %36 = getelementptr inbounds %class.Register, ptr %15, i32 0, i32 0
  %37 = load i32, ptr %36, align 4
  call void @_ZN25InterpreterMacroAssembler22update_mdp_by_constantE8Registeri(ptr noundef nonnull align 8 dereferenceable(48) %19, i32 %37, i32 noundef %35)
  call void @_ZN17AbstractAssembler4bindER5Label(ptr noundef nonnull align 8 dereferenceable(24) %19, ptr noundef nonnull align 8 dereferenceable(33) %9)
  call void @_ZN5LabelD2Ev(ptr noundef nonnull align 8 dereferenceable(33) %9) #6
  br label %38

38:                                               ; preds = %22, %4
  ret void
}