; Function Attrs: mustprogress nounwind uwtable
define hidden void @_ZN25InterpreterMacroAssembler17profile_typecheckE8RegisterS0_S0_(ptr noundef nonnull align 8 dereferenceable(48) %0, i32 %1, i32 %2, i32 %3) local_unnamed_addr #0 align 2 {
  %5 = alloca %class.Address, align 16
  %6 = alloca %class.Label, align 8
  %7 = alloca %class.Address, align 16
  %8 = alloca %class.Label, align 8
  %9 = load i8, ptr @ProfileInterpreter, align 1
  %10 = trunc i8 %9 to i1
  br i1 %10, label %11, label %32

11:                                               ; preds = %4
  store i32 -1, ptr %8, align 8
  %12 = getelementptr inbounds i8, ptr %8, i64 20
  store i32 0, ptr %12, align 4
  %13 = getelementptr inbounds i8, ptr %8, i64 24
  store ptr null, ptr %13, align 8
  %14 = getelementptr inbounds i8, ptr %8, i64 32
  store i8 0, ptr %14, align 8
  call void @llvm.lifetime.start.p0(i64 64, ptr nonnull %7)
  store <4 x i32> <i32 5, i32 -1, i32 -1, i32 -1>, ptr %7, align 16
  %15 = getelementptr inbounds i8, ptr %7, i64 16
  store i32 -40, ptr %15, align 16
  %16 = getelementptr inbounds i8, ptr %7, i64 20
  store i8 0, ptr %16, align 4
  %17 = getelementptr inbounds i8, ptr %7, i64 24
  store ptr getelementptr inbounds inrange(-16, 72) (i8, ptr @_ZTV10Relocation, i64 16), ptr %17, align 8
  %18 = getelementptr inbounds i8, ptr %7, i64 32
  store ptr null, ptr %18, align 16
  %19 = getelementptr inbounds i8, ptr %7, i64 40
  store i32 0, ptr %19, align 8
  call void @_ZN14MacroAssembler6movptrE8Register7Address(ptr noundef nonnull align 8 dereferenceable(40) %0, i32 %1, ptr noundef nonnull %7) #8
  call void @_ZN14MacroAssembler7testptrE8RegisterS0_(ptr noundef nonnull align 8 dereferenceable(40) %0, i32 %1, i32 %1) #8
  call void @_ZN9Assembler3jccENS_9ConditionER5Labelb(ptr noundef nonnull align 8 dereferenceable(40) %0, i32 noundef 4, ptr noundef nonnull align 8 dereferenceable(33) %8, i1 noundef zeroext true) #8
  call void @llvm.lifetime.end.p0(i64 64, ptr nonnull %7)
  %20 = load i64, ptr @TypeProfileWidth, align 8
  %21 = trunc i64 %20 to i32
  %22 = shl i32 %21, 4
  %23 = add nsw i32 %22, 16
  call void @llvm.lifetime.start.p0(i64 40, ptr nonnull %6)
  store i32 -1, ptr %6, align 8
  %24 = getelementptr inbounds i8, ptr %6, i64 20
  store i32 0, ptr %24, align 4
  %25 = getelementptr inbounds i8, ptr %6, i64 24
  store ptr null, ptr %25, align 8
  %26 = getelementptr inbounds i8, ptr %6, i64 32
  store i8 0, ptr %26, align 8
  call void @_ZN25InterpreterMacroAssembler30record_klass_in_profile_helperE8RegisterS0_S0_iR5Labelb(ptr noundef nonnull align 8 dereferenceable(48) %0, i32 %2, i32 %1, i32 %3, i32 poison, ptr noundef nonnull align 8 dereferenceable(33) %6, i1 zeroext poison)
  call void @_ZN17AbstractAssembler4bindER5Label(ptr noundef nonnull align 8 dereferenceable(24) %0, ptr noundef nonnull align 8 dereferenceable(33) %6) #8
  call void @llvm.lifetime.end.p0(i64 40, ptr nonnull %6)
  call void @llvm.lifetime.start.p0(i64 64, ptr nonnull %5)
  call void @_ZN14MacroAssembler6addptrE8Registeri(ptr noundef nonnull align 8 dereferenceable(40) %0, i32 %1, i32 noundef %23) #8
  store <4 x i32> <i32 5, i32 -1, i32 -1, i32 -1>, ptr %5, align 16
  %27 = getelementptr inbounds i8, ptr %5, i64 16
  store i32 -40, ptr %27, align 16
  %28 = getelementptr inbounds i8, ptr %5, i64 20
  store i8 0, ptr %28, align 4
  %29 = getelementptr inbounds i8, ptr %5, i64 24
  store ptr getelementptr inbounds inrange(-16, 72) (i8, ptr @_ZTV10Relocation, i64 16), ptr %29, align 8
  %30 = getelementptr inbounds i8, ptr %5, i64 32
  store ptr null, ptr %30, align 16
  %31 = getelementptr inbounds i8, ptr %5, i64 40
  store i32 0, ptr %31, align 8
  call void @_ZN14MacroAssembler6movptrE7Address8Register(ptr noundef nonnull align 8 dereferenceable(40) %0, ptr noundef nonnull %5, i32 %1) #8
  call void @llvm.lifetime.end.p0(i64 64, ptr nonnull %5)
  call void @_ZN17AbstractAssembler4bindER5Label(ptr noundef nonnull align 8 dereferenceable(24) %0, ptr noundef nonnull align 8 dereferenceable(33) %8) #8
  br label %32

32:                                               ; preds = %11, %4
  ret void
}